target datalayout = "e-m:e-p270:32:32-p271:32:32-p272:64:64-i64:64-i128:128-f80:128-n8:16:32:64-S128"
target triple = "x86_64-pc-linux-gnu"

@.str.14 = private unnamed_addr constant [30 x i8] c"../openssl/test/ocspapitest.c\00", align 1
@certstr = internal global ptr null, align 8
@privkeystr = internal global ptr null, align 8
@.str.21 = private unnamed_addr constant [3 x i8] c"bs\00", align 1
@.str.22 = private unnamed_addr constant [12 x i8] c"extra_certs\00", align 1
@.str.23 = private unnamed_addr constant [32 x i8] c"get_cert_and_key(&signer, &key)\00", align 1
@.str.24 = private unnamed_addr constant [34 x i8] c"sk_X509_push(extra_certs, signer)\00", align 1
@.str.25 = private unnamed_addr constant [65 x i8] c"OCSP_basic_sign(bs, signer, key, EVP_sha1(), NULL, OCSP_NOCERTS)\00", align 1
@.str.26 = private unnamed_addr constant [45 x i8] c"OCSP_resp_get0_signer(bs, &tmp, extra_certs)\00", align 1
@.str.27 = private unnamed_addr constant [22 x i8] c"X509_cmp(tmp, signer)\00", align 1
@.str.28 = private unnamed_addr constant [2 x i8] c"0\00", align 1
@.str.29 = private unnamed_addr constant [54 x i8] c"OCSP_basic_sign(bs, signer, key, EVP_sha1(), NULL, 0)\00", align 1
@.str.30 = private unnamed_addr constant [38 x i8] c"OCSP_resp_get0_signer(bs, &tmp, NULL)\00", align 1
@.str.32 = private unnamed_addr constant [4 x i8] c"key\00", align 1
@.str.41 = private unnamed_addr constant [37 x i8] c"certbio = BIO_new_file(certstr, \22r\22)\00", align 1
@.str.42 = private unnamed_addr constant [2 x i8] c"r\00", align 1
@.str.43 = private unnamed_addr constant [39 x i8] c"keybio = BIO_new_file(privkeystr, \22r\22)\00", align 1
@.str.44 = private unnamed_addr constant [5 x i8] c"cert\00", align 1

; Function Attrs: inlinehint nounwind uwtable
define internal ptr @ossl_check_X509_type(ptr noundef %0) #3 {
  %2 = alloca ptr, align 8
  store ptr %0, ptr %2, align 8, !tbaa !11
  %3 = load ptr, ptr %2, align 8, !tbaa !11
  ret ptr %3
}

; Function Attrs: inlinehint nounwind uwtable
define internal ptr @ossl_check_X509_sk_type(ptr noundef %0) #3 {
  %2 = alloca ptr, align 8
  store ptr %0, ptr %2, align 8, !tbaa !15
  %3 = load ptr, ptr %2, align 8, !tbaa !15
  ret ptr %3
}

; Function Attrs: nounwind uwtable
define internal i32 @get_cert_and_key(ptr noundef %0, ptr noundef %1) #0 {
  %3 = alloca i32, align 4
  %4 = alloca ptr, align 8
  %5 = alloca ptr, align 8
  %6 = alloca ptr, align 8
  %7 = alloca ptr, align 8
  %8 = alloca ptr, align 8
  %9 = alloca ptr, align 8
  %10 = alloca i32, align 4
  store ptr %0, ptr %4, align 8, !tbaa !33
  store ptr %1, ptr %5, align 8, !tbaa !35
  call void @llvm.lifetime.start.p0(i64 8, ptr %6) #7
  call void @llvm.lifetime.start.p0(i64 8, ptr %7) #7
  call void @llvm.lifetime.start.p0(i64 8, ptr %8) #7
  store ptr null, ptr %8, align 8, !tbaa !11
  call void @llvm.lifetime.start.p0(i64 8, ptr %9) #7
  store ptr null, ptr %9, align 8, !tbaa !13
  %11 = load ptr, ptr @certstr, align 8, !tbaa !4
  %12 = call ptr @BIO_new_file(ptr noundef %11, ptr noundef @.str.42)
  store ptr %12, ptr %6, align 8, !tbaa !37
  %13 = call i32 @test_ptr(ptr noundef @.str.14, i32 noundef 31, ptr noundef @.str.41, ptr noundef %12)
  %14 = icmp ne i32 %13, 0
  br i1 %14, label %16, label %15

15:                                               ; preds = %2
  store i32 0, ptr %3, align 4
  store i32 1, ptr %10, align 4
  br label %47

16:                                               ; preds = %2
  %17 = load ptr, ptr %6, align 8, !tbaa !37
  %18 = call ptr @PEM_read_bio_X509(ptr noundef %17, ptr noundef null, ptr noundef null, ptr noundef null)
  store ptr %18, ptr %8, align 8, !tbaa !11
  %19 = load ptr, ptr %6, align 8, !tbaa !37
  %20 = call i32 @BIO_free(ptr noundef %19)
  %21 = load ptr, ptr @privkeystr, align 8, !tbaa !4
  %22 = call ptr @BIO_new_file(ptr noundef %21, ptr noundef @.str.42)
  store ptr %22, ptr %7, align 8, !tbaa !37
  %23 = call i32 @test_ptr(ptr noundef @.str.14, i32 noundef 35, ptr noundef @.str.43, ptr noundef %22)
  %24 = icmp ne i32 %23, 0
  br i1 %24, label %26, label %25

25:                                               ; preds = %16
  br label %44

26:                                               ; preds = %16
  %27 = load ptr, ptr %7, align 8, !tbaa !37
  %28 = call ptr @PEM_read_bio_PrivateKey(ptr noundef %27, ptr noundef null, ptr noundef null, ptr noundef null)
  store ptr %28, ptr %9, align 8, !tbaa !13
  %29 = load ptr, ptr %7, align 8, !tbaa !37
  %30 = call i32 @BIO_free(ptr noundef %29)
  %31 = load ptr, ptr %8, align 8, !tbaa !11
  %32 = call i32 @test_ptr(ptr noundef @.str.14, i32 noundef 39, ptr noundef @.str.44, ptr noundef %31)
  %33 = icmp ne i32 %32, 0
  br i1 %33, label %34, label %38

34:                                               ; preds = %26
  %35 = load ptr, ptr %9, align 8, !tbaa !13
  %36 = call i32 @test_ptr(ptr noundef @.str.14, i32 noundef 39, ptr noundef @.str.32, ptr noundef %35)
  %37 = icmp ne i32 %36, 0
  br i1 %37, label %39, label %38

38:                                               ; preds = %34, %26
  br label %44

39:                                               ; preds = %34
  %40 = load ptr, ptr %8, align 8, !tbaa !11
  %41 = load ptr, ptr %4, align 8, !tbaa !33
  store ptr %40, ptr %41, align 8, !tbaa !11
  %42 = load ptr, ptr %9, align 8, !tbaa !13
  %43 = load ptr, ptr %5, align 8, !tbaa !35
  store ptr %42, ptr %43, align 8, !tbaa !13
  store i32 1, ptr %3, align 4
  store i32 1, ptr %10, align 4
  br label %47

44:                                               ; preds = %38, %25
  %45 = load ptr, ptr %8, align 8, !tbaa !11
  call void @X509_free(ptr noundef %45)
  %46 = load ptr, ptr %9, align 8, !tbaa !13
  call void @EVP_PKEY_free(ptr noundef %46)
  store i32 0, ptr %3, align 4
  store i32 1, ptr %10, align 4
  br label %47

47:                                               ; preds = %44, %39, %15
  call void @llvm.lifetime.end.p0(i64 8, ptr %9) #7
  call void @llvm.lifetime.end.p0(i64 8, ptr %8) #7
  call void @llvm.lifetime.end.p0(i64 8, ptr %7) #7
  call void @llvm.lifetime.end.p0(i64 8, ptr %6) #7
  %48 = load i32, ptr %3, align 4
  ret i32 %48
}

; Function Attrs: nounwind uwtable
define internal i32 @test_resp_signer() #0 {
  %1 = alloca ptr, align 8
  %2 = alloca ptr, align 8
  %3 = alloca ptr, align 8
  %4 = alloca ptr, align 8
  %5 = alloca ptr, align 8
  %6 = alloca i32, align 4
  call void @llvm.lifetime.start.p0(i64 8, ptr %1) #7
  store ptr null, ptr %1, align 8, !tbaa !9
  call void @llvm.lifetime.start.p0(i64 8, ptr %2) #7
  store ptr null, ptr %2, align 8, !tbaa !11
  call void @llvm.lifetime.start.p0(i64 8, ptr %3) #7
  call void @llvm.lifetime.start.p0(i64 8, ptr %4) #7
  store ptr null, ptr %4, align 8, !tbaa !13
  call void @llvm.lifetime.start.p0(i64 8, ptr %5) #7
  store ptr null, ptr %5, align 8, !tbaa !15
  call void @llvm.lifetime.start.p0(i64 4, ptr %6) #7
  store i32 0, ptr %6, align 4, !tbaa !17
  %7 = call ptr @make_dummy_resp()
  store ptr %7, ptr %1, align 8, !tbaa !9
  %8 = call ptr @OPENSSL_sk_new_null()
  store ptr %8, ptr %5, align 8, !tbaa !15
  %9 = load ptr, ptr %1, align 8, !tbaa !9
  %10 = call i32 @test_ptr(ptr noundef @.str.14, i32 noundef 126, ptr noundef @.str.21, ptr noundef %9)
  %11 = icmp ne i32 %10, 0
  br i1 %11, label %12, label %42

12:                                               ; preds = %0
  %13 = load ptr, ptr %5, align 8, !tbaa !15
  %14 = call i32 @test_ptr(ptr noundef @.str.14, i32 noundef 127, ptr noundef @.str.22, ptr noundef %13)
  %15 = icmp ne i32 %14, 0
  br i1 %15, label %16, label %42

16:                                               ; preds = %12
  %17 = call i32 @get_cert_and_key(ptr noundef %2, ptr noundef %4)
  %18 = icmp ne i32 %17, 0
  %19 = zext i1 %18 to i32
  %20 = call i32 @test_true(ptr noundef @.str.14, i32 noundef 128, ptr noundef @.str.23, i32 noundef %19)
  %21 = icmp ne i32 %20, 0
  br i1 %21, label %22, label %42

22:                                               ; preds = %16
  %23 = load ptr, ptr %5, align 8, !tbaa !15
  %24 = call ptr @ossl_check_X509_sk_type(ptr noundef %23)
  %25 = load ptr, ptr %2, align 8, !tbaa !11
  %26 = call ptr @ossl_check_X509_type(ptr noundef %25)
  %27 = call i32 @OPENSSL_sk_push(ptr noundef %24, ptr noundef %26)
  %28 = icmp ne i32 %27, 0
  %29 = zext i1 %28 to i32
  %30 = call i32 @test_true(ptr noundef @.str.14, i32 noundef 129, ptr noundef @.str.24, i32 noundef %29)
  %31 = icmp ne i32 %30, 0
  br i1 %31, label %32, label %42

32:                                               ; preds = %22
  %33 = load ptr, ptr %1, align 8, !tbaa !9
  %34 = load ptr, ptr %2, align 8, !tbaa !11
  %35 = load ptr, ptr %4, align 8, !tbaa !13
  %36 = call ptr @EVP_sha1()
  %37 = call i32 @OCSP_basic_sign(ptr noundef %33, ptr noundef %34, ptr noundef %35, ptr noundef %36, ptr noundef null, i64 noundef 1)
  %38 = icmp ne i32 %37, 0
  %39 = zext i1 %38 to i32
  %40 = call i32 @test_true(ptr noundef @.str.14, i32 noundef 131, ptr noundef @.str.25, i32 noundef %39)
  %41 = icmp ne i32 %40, 0
  br i1 %41, label %43, label %42

42:                                               ; preds = %32, %22, %16, %12, %0
  br label %90

43:                                               ; preds = %32
  %44 = load ptr, ptr %1, align 8, !tbaa !9
  %45 = load ptr, ptr %5, align 8, !tbaa !15
  %46 = call i32 @OCSP_resp_get0_signer(ptr noundef %44, ptr noundef %3, ptr noundef %45)
  %47 = icmp ne i32 %46, 0
  %48 = zext i1 %47 to i32
  %49 = call i32 @test_true(ptr noundef @.str.14, i32 noundef 133, ptr noundef @.str.26, i32 noundef %48)
  %50 = icmp ne i32 %49, 0
  br i1 %50, label %51, label %57

51:                                               ; preds = %43
  %52 = load ptr, ptr %3, align 8, !tbaa !11
  %53 = load ptr, ptr %2, align 8, !tbaa !11
  %54 = call i32 @X509_cmp(ptr noundef %52, ptr noundef %53)
  %55 = call i32 @test_int_eq(ptr noundef @.str.14, i32 noundef 134, ptr noundef @.str.27, ptr noundef @.str.28, i32 noundef %54, i32 noundef 0)
  %56 = icmp ne i32 %55, 0
  br i1 %56, label %58, label %57

57:                                               ; preds = %51, %43
  br label %90

58:                                               ; preds = %51
  %59 = load ptr, ptr %1, align 8, !tbaa !9
  call void @OCSP_BASICRESP_free(ptr noundef %59)
  %60 = call ptr @make_dummy_resp()
  store ptr %60, ptr %1, align 8, !tbaa !9
  store ptr null, ptr %3, align 8, !tbaa !11
  %61 = load ptr, ptr %1, align 8, !tbaa !9
  %62 = call i32 @test_ptr(ptr noundef @.str.14, i32 noundef 141, ptr noundef @.str.21, ptr noundef %61)
  %63 = icmp ne i32 %62, 0
  br i1 %63, label %64, label %74

64:                                               ; preds = %58
  %65 = load ptr, ptr %1, align 8, !tbaa !9
  %66 = load ptr, ptr %2, align 8, !tbaa !11
  %67 = load ptr, ptr %4, align 8, !tbaa !13
  %68 = call ptr @EVP_sha1()
  %69 = call i32 @OCSP_basic_sign(ptr noundef %65, ptr noundef %66, ptr noundef %67, ptr noundef %68, ptr noundef null, i64 noundef 0)
  %70 = icmp ne i32 %69, 0
  %71 = zext i1 %70 to i32
  %72 = call i32 @test_true(ptr noundef @.str.14, i32 noundef 143, ptr noundef @.str.29, i32 noundef %71)
  %73 = icmp ne i32 %72, 0
  br i1 %73, label %75, label %74

74:                                               ; preds = %64, %58
  br label %90

75:                                               ; preds = %64
  %76 = load ptr, ptr %1, align 8, !tbaa !9
  %77 = call i32 @OCSP_resp_get0_signer(ptr noundef %76, ptr noundef %3, ptr noundef null)
  %78 = icmp ne i32 %77, 0
  %79 = zext i1 %78 to i32
  %80 = call i32 @test_true(ptr noundef @.str.14, i32 noundef 145, ptr noundef @.str.30, i32 noundef %79)
  %81 = icmp ne i32 %80, 0
  br i1 %81, label %82, label %88

82:                                               ; preds = %75
  %83 = load ptr, ptr %3, align 8, !tbaa !11
  %84 = load ptr, ptr %2, align 8, !tbaa !11
  %85 = call i32 @X509_cmp(ptr noundef %83, ptr noundef %84)
  %86 = call i32 @test_int_eq(ptr noundef @.str.14, i32 noundef 146, ptr noundef @.str.27, ptr noundef @.str.28, i32 noundef %85, i32 noundef 0)
  %87 = icmp ne i32 %86, 0
  br i1 %87, label %89, label %88

88:                                               ; preds = %82, %75
  br label %90

89:                                               ; preds = %82
  store i32 1, ptr %6, align 4, !tbaa !17
  br label %90

90:                                               ; preds = %89, %88, %74, %57, %42
  %91 = load ptr, ptr %1, align 8, !tbaa !9
  call void @OCSP_BASICRESP_free(ptr noundef %91)
  %92 = load ptr, ptr %5, align 8, !tbaa !15
  %93 = call ptr @ossl_check_X509_sk_type(ptr noundef %92)
  call void @OPENSSL_sk_free(ptr noundef %93)
  %94 = load ptr, ptr %2, align 8, !tbaa !11
  call void @X509_free(ptr noundef %94)
  %95 = load ptr, ptr %4, align 8, !tbaa !13
  call void @EVP_PKEY_free(ptr noundef %95)
  %96 = load i32, ptr %6, align 4, !tbaa !17
  call void @llvm.lifetime.end.p0(i64 4, ptr %6) #7
  call void @llvm.lifetime.end.p0(i64 8, ptr %5) #7
  call void @llvm.lifetime.end.p0(i64 8, ptr %4) #7
  call void @llvm.lifetime.end.p0(i64 8, ptr %3) #7
  call void @llvm.lifetime.end.p0(i64 8, ptr %2) #7
  call void @llvm.lifetime.end.p0(i64 8, ptr %1) #7
  ret i32 %96
}