; Function Attrs: nounwind uwtable
define internal range(i32 0, 2) i32 @test_resp_signer() #1 {
  %1 = alloca ptr, align 8
  call void @llvm.lifetime.start.p0(i64 8, ptr nonnull %1) #7
  %2 = tail call fastcc ptr @make_dummy_resp()
  %3 = tail call ptr @OPENSSL_sk_new_null() #7
  %4 = tail call i32 @test_ptr(ptr noundef nonnull @.str.14, i32 noundef 126, ptr noundef nonnull @.str.21, ptr noundef %2) #7
  %.not = icmp eq i32 %4, 0
  br i1 %.not, label %63, label %5

5:                                                ; preds = %0
  %6 = tail call i32 @test_ptr(ptr noundef nonnull @.str.14, i32 noundef 127, ptr noundef nonnull @.str.22, ptr noundef %3) #7
  %.not13 = icmp eq i32 %6, 0
  br i1 %.not13, label %63, label %7

7:                                                ; preds = %5
  %8 = load ptr, ptr @certstr, align 8, !tbaa !4
  %9 = tail call ptr @BIO_new_file(ptr noundef %8, ptr noundef nonnull @.str.42) #7
  %10 = tail call i32 @test_ptr(ptr noundef nonnull @.str.14, i32 noundef 31, ptr noundef nonnull @.str.41, ptr noundef %9) #7
  %.not.i = icmp eq i32 %10, 0
  br i1 %.not.i, label %get_cert_and_key.exit, label %11

11:                                               ; preds = %7
  %12 = tail call ptr @PEM_read_bio_X509(ptr noundef %9, ptr noundef null, ptr noundef null, ptr noundef null) #7
  %13 = tail call i32 @BIO_free(ptr noundef %9) #7
  %14 = load ptr, ptr @privkeystr, align 8, !tbaa !4
  %15 = tail call ptr @BIO_new_file(ptr noundef %14, ptr noundef nonnull @.str.42) #7
  %16 = tail call i32 @test_ptr(ptr noundef nonnull @.str.14, i32 noundef 35, ptr noundef nonnull @.str.43, ptr noundef %15) #7
  %.not13.i = icmp eq i32 %16, 0
  br i1 %.not13.i, label %23, label %17

17:                                               ; preds = %11
  %18 = tail call ptr @PEM_read_bio_PrivateKey(ptr noundef %15, ptr noundef null, ptr noundef null, ptr noundef null) #7
  %19 = tail call i32 @BIO_free(ptr noundef %15) #7
  %20 = tail call i32 @test_ptr(ptr noundef nonnull @.str.14, i32 noundef 39, ptr noundef nonnull @.str.44, ptr noundef %12) #7
  %.not14.i = icmp eq i32 %20, 0
  br i1 %.not14.i, label %23, label %21

21:                                               ; preds = %17
  %22 = tail call i32 @test_ptr(ptr noundef nonnull @.str.14, i32 noundef 39, ptr noundef nonnull @.str.32, ptr noundef %18) #7
  %.not15.i = icmp eq i32 %22, 0
  br i1 %.not15.i, label %23, label %get_cert_and_key.exit

23:                                               ; preds = %21, %17, %11
  %.0.i = phi ptr [ %18, %21 ], [ %18, %17 ], [ null, %11 ]
  tail call void @X509_free(ptr noundef %12) #7
  tail call void @EVP_PKEY_free(ptr noundef %.0.i) #7
  br label %get_cert_and_key.exit

get_cert_and_key.exit:                            ; preds = %21, %7, %23
  %.133 = phi ptr [ null, %7 ], [ null, %23 ], [ %12, %21 ]
  %.1 = phi ptr [ null, %7 ], [ null, %23 ], [ %18, %21 ]
  %.012.i = phi i32 [ 0, %7 ], [ 0, %23 ], [ 1, %21 ]
  %24 = tail call i32 @test_true(ptr noundef nonnull @.str.14, i32 noundef 128, ptr noundef nonnull @.str.23, i32 noundef %.012.i) #7
  %.not14 = icmp eq i32 %24, 0
  br i1 %.not14, label %63, label %25

25:                                               ; preds = %get_cert_and_key.exit
  %26 = tail call i32 @OPENSSL_sk_push(ptr noundef %3, ptr noundef %.133) #7
  %27 = icmp ne i32 %26, 0
  %28 = zext i1 %27 to i32
  %29 = tail call i32 @test_true(ptr noundef nonnull @.str.14, i32 noundef 129, ptr noundef nonnull @.str.24, i32 noundef %28) #7
  %.not15 = icmp eq i32 %29, 0
  br i1 %.not15, label %63, label %30

30:                                               ; preds = %25
  %31 = tail call ptr @EVP_sha1() #7
  %32 = tail call i32 @OCSP_basic_sign(ptr noundef %2, ptr noundef %.133, ptr noundef %.1, ptr noundef %31, ptr noundef null, i64 noundef 1) #7
  %33 = icmp ne i32 %32, 0
  %34 = zext i1 %33 to i32
  %35 = tail call i32 @test_true(ptr noundef nonnull @.str.14, i32 noundef 131, ptr noundef nonnull @.str.25, i32 noundef %34) #7
  %.not16 = icmp eq i32 %35, 0
  br i1 %.not16, label %63, label %36

36:                                               ; preds = %30
  %37 = call i32 @OCSP_resp_get0_signer(ptr noundef %2, ptr noundef nonnull %1, ptr noundef %3) #7
  %38 = icmp ne i32 %37, 0
  %39 = zext i1 %38 to i32
  %40 = call i32 @test_true(ptr noundef nonnull @.str.14, i32 noundef 133, ptr noundef nonnull @.str.26, i32 noundef %39) #7
  %.not17 = icmp eq i32 %40, 0
  br i1 %.not17, label %63, label %41

41:                                               ; preds = %36
  %42 = load ptr, ptr %1, align 8, !tbaa !9
  %43 = call i32 @X509_cmp(ptr noundef %42, ptr noundef %.133) #7
  %44 = call i32 @test_int_eq(ptr noundef nonnull @.str.14, i32 noundef 134, ptr noundef nonnull @.str.27, ptr noundef nonnull @.str.28, i32 noundef %43, i32 noundef 0) #7
  %.not18 = icmp eq i32 %44, 0
  br i1 %.not18, label %63, label %45

45:                                               ; preds = %41
  call void @OCSP_BASICRESP_free(ptr noundef %2) #7
  %46 = call fastcc ptr @make_dummy_resp()
  store ptr null, ptr %1, align 8, !tbaa !9
  %47 = call i32 @test_ptr(ptr noundef nonnull @.str.14, i32 noundef 141, ptr noundef nonnull @.str.21, ptr noundef %46) #7
  %.not19 = icmp eq i32 %47, 0
  br i1 %.not19, label %63, label %48

48:                                               ; preds = %45
  %49 = call ptr @EVP_sha1() #7
  %50 = call i32 @OCSP_basic_sign(ptr noundef %46, ptr noundef %.133, ptr noundef %.1, ptr noundef %49, ptr noundef null, i64 noundef 0) #7
  %51 = icmp ne i32 %50, 0
  %52 = zext i1 %51 to i32
  %53 = call i32 @test_true(ptr noundef nonnull @.str.14, i32 noundef 143, ptr noundef nonnull @.str.29, i32 noundef %52) #7
  %.not20 = icmp eq i32 %53, 0
  br i1 %.not20, label %63, label %54

54:                                               ; preds = %48
  %55 = call i32 @OCSP_resp_get0_signer(ptr noundef %46, ptr noundef nonnull %1, ptr noundef null) #7
  %56 = icmp ne i32 %55, 0
  %57 = zext i1 %56 to i32
  %58 = call i32 @test_true(ptr noundef nonnull @.str.14, i32 noundef 145, ptr noundef nonnull @.str.30, i32 noundef %57) #7
  %.not21 = icmp eq i32 %58, 0
  br i1 %.not21, label %63, label %59

59:                                               ; preds = %54
  %60 = load ptr, ptr %1, align 8, !tbaa !9
  %61 = call i32 @X509_cmp(ptr noundef %60, ptr noundef %.133) #7
  %62 = call i32 @test_int_eq(ptr noundef nonnull @.str.14, i32 noundef 146, ptr noundef nonnull @.str.27, ptr noundef nonnull @.str.28, i32 noundef %61, i32 noundef 0) #7
  %.not22 = icmp ne i32 %62, 0
  %spec.select = zext i1 %.not22 to i32
  br label %63

63:                                               ; preds = %59, %54, %45, %48, %36, %41, %0, %5, %get_cert_and_key.exit, %25, %30
  %.032 = phi ptr [ null, %0 ], [ null, %5 ], [ %.133, %get_cert_and_key.exit ], [ %.133, %25 ], [ %.133, %30 ], [ %.133, %36 ], [ %.133, %41 ], [ %.133, %45 ], [ %.133, %48 ], [ %.133, %54 ], [ %.133, %59 ]
  %.031 = phi ptr [ null, %0 ], [ null, %5 ], [ %.1, %get_cert_and_key.exit ], [ %.1, %25 ], [ %.1, %30 ], [ %.1, %36 ], [ %.1, %41 ], [ %.1, %45 ], [ %.1, %48 ], [ %.1, %54 ], [ %.1, %59 ]
  %.012 = phi ptr [ %2, %0 ], [ %2, %5 ], [ %2, %get_cert_and_key.exit ], [ %2, %25 ], [ %2, %30 ], [ %2, %36 ], [ %2, %41 ], [ %46, %45 ], [ %46, %48 ], [ %46, %54 ], [ %46, %59 ]
  %.0 = phi i32 [ 0, %0 ], [ 0, %5 ], [ 0, %get_cert_and_key.exit ], [ 0, %25 ], [ 0, %30 ], [ 0, %36 ], [ 0, %41 ], [ 0, %45 ], [ 0, %48 ], [ 0, %54 ], [ %spec.select, %59 ]
  call void @OCSP_BASICRESP_free(ptr noundef %.012) #7
  call void @OPENSSL_sk_free(ptr noundef %3) #7
  call void @X509_free(ptr noundef %.032) #7
  call void @EVP_PKEY_free(ptr noundef %.031) #7
  call void @llvm.lifetime.end.p0(i64 8, ptr nonnull %1) #7
  ret i32 %.0
}